target datalayout = "e-m:e-p270:32:32-p271:32:32-p272:64:64-i64:64-i128:128-f80:128-n8:16:32:64-S128"
target triple = "x86_64-pc-linux-gnu"

%"class.icu_77::Calendar" = type <{ %"class.icu_77::UObject", [24 x i32], [24 x i8], i8, [7 x i8], double, ptr, i8, i16, i8, i32, i32, i32, i8, i8, i16, [4 x i8], ptr, ptr }>
%"class.icu_77::UObject" = type { ptr }

; Function Attrs: inlinehint mustprogress nounwind uwtable
define linkonce_odr noundef i32 @_ZNK6icu_778Calendar11internalGetE19UCalendarDateFields(ptr noundef nonnull align 8 dereferenceable(192) %0, i32 noundef %1) #4 comdat align 2 {
  %3 = alloca ptr, align 8
  %4 = alloca i32, align 4
  store ptr %0, ptr %3, align 8, !tbaa !32
  store i32 %1, ptr %4, align 4, !tbaa !45
  %5 = load ptr, ptr %3, align 8
  %6 = getelementptr inbounds nuw %"class.icu_77::Calendar", ptr %5, i32 0, i32 1
  %7 = load i32, ptr %4, align 4, !tbaa !45
  %8 = zext i32 %7 to i64
  %9 = getelementptr inbounds nuw [24 x i32], ptr %6, i64 0, i64 %8
  %10 = load i32, ptr %9, align 4, !tbaa !31
  ret i32 %10
}

; Function Attrs: inlinehint mustprogress nounwind uwtable
define linkonce_odr noundef i32 @_ZNK6icu_778Calendar11internalGetE19UCalendarDateFieldsi(ptr noundef nonnull align 8 dereferenceable(192) %0, i32 noundef %1, i32 noundef %2) #4 comdat align 2 {
  %4 = alloca ptr, align 8
  %5 = alloca i32, align 4
  %6 = alloca i32, align 4
  store ptr %0, ptr %4, align 8, !tbaa !32
  store i32 %1, ptr %5, align 4, !tbaa !45
  store i32 %2, ptr %6, align 4, !tbaa !31
  %7 = load ptr, ptr %4, align 8
  %8 = getelementptr inbounds nuw %"class.icu_77::Calendar", ptr %7, i32 0, i32 2
  %9 = load i32, ptr %5, align 4, !tbaa !45
  %10 = zext i32 %9 to i64
  %11 = getelementptr inbounds nuw [24 x i8], ptr %8, i64 0, i64 %10
  %12 = load i8, ptr %11, align 1, !tbaa !37
  %13 = sext i8 %12 to i32
  %14 = icmp sgt i32 %13, 0
  br i1 %14, label %15, label %21

15:                                               ; preds = %3
  %16 = getelementptr inbounds nuw %"class.icu_77::Calendar", ptr %7, i32 0, i32 1
  %17 = load i32, ptr %5, align 4, !tbaa !45
  %18 = zext i32 %17 to i64
  %19 = getelementptr inbounds nuw [24 x i32], ptr %16, i64 0, i64 %18
  %20 = load i32, ptr %19, align 4, !tbaa !31
  br label %23

21:                                               ; preds = %3
  %22 = load i32, ptr %6, align 4, !tbaa !31
  br label %23

23:                                               ; preds = %21, %15
  %24 = phi i32 [ %20, %15 ], [ %22, %21 ]
  ret i32 %24
}

; Function Attrs: inlinehint mustprogress nounwind uwtable
define internal noundef signext i8 @_ZL9U_FAILURE10UErrorCode(i32 noundef %0) #4 {
  %2 = alloca i32, align 4
  store i32 %0, ptr %2, align 4, !tbaa !35
  %3 = load i32, ptr %2, align 4, !tbaa !35
  %4 = icmp sgt i32 %3, 0
  %5 = zext i1 %4 to i8
  ret i8 %5
}

; Function Attrs: mustprogress uwtable
define noundef i32 @_ZN6icu_7717GregorianCalendar21handleGetExtendedYearER10UErrorCode(ptr noundef nonnull align 8 dereferenceable(222) %0, ptr noundef nonnull align 4 dereferenceable(4) %1) unnamed_addr #1 align 2 {
  %3 = alloca i32, align 4
  %4 = alloca ptr, align 8
  %5 = alloca ptr, align 8
  %6 = alloca i32, align 4
  %7 = alloca i32, align 4
  %8 = alloca i32, align 4
  %9 = alloca i32, align 4
  store ptr %0, ptr %4, align 8, !tbaa !3
  store ptr %1, ptr %5, align 8, !tbaa !8
  %10 = load ptr, ptr %4, align 8
  %11 = load ptr, ptr %5, align 8, !tbaa !8
  %12 = load i32, ptr %11, align 4, !tbaa !35
  %13 = call noundef signext i8 @_ZL9U_FAILURE10UErrorCode(i32 noundef %12)
  %14 = icmp ne i8 %13, 0
  br i1 %14, label %15, label %16

15:                                               ; preds = %2
  store i32 0, ptr %3, align 4
  br label %59

16:                                               ; preds = %2
  call void @llvm.lifetime.start.p0(i64 4, ptr %6) #10
  store i32 1970, ptr %6, align 4, !tbaa !31
  call void @llvm.lifetime.start.p0(i64 4, ptr %7) #10
  %17 = call noundef i32 @_ZNK6icu_778Calendar10newerFieldE19UCalendarDateFieldsS1_(ptr noundef nonnull align 8 dereferenceable(192) %10, i32 noundef 19, i32 noundef 1)
  %18 = call noundef i32 @_ZNK6icu_778Calendar10newerFieldE19UCalendarDateFieldsS1_(ptr noundef nonnull align 8 dereferenceable(192) %10, i32 noundef %17, i32 noundef 17)
  store i32 %18, ptr %7, align 4, !tbaa !45
  %19 = load i32, ptr %7, align 4, !tbaa !45
  switch i32 %19, label %55 [
    i32 19, label %20
    i32 1, label %22
    i32 17, label %41
  ]

20:                                               ; preds = %16
  %21 = call noundef i32 @_ZNK6icu_778Calendar11internalGetE19UCalendarDateFieldsi(ptr noundef nonnull align 8 dereferenceable(192) %10, i32 noundef 19, i32 noundef 1970)
  store i32 %21, ptr %6, align 4, !tbaa !31
  br label %56

22:                                               ; preds = %16
  call void @llvm.lifetime.start.p0(i64 4, ptr %8) #10
  %23 = call noundef i32 @_ZNK6icu_778Calendar11internalGetE19UCalendarDateFieldsi(ptr noundef nonnull align 8 dereferenceable(192) %10, i32 noundef 0, i32 noundef 1)
  store i32 %23, ptr %8, align 4, !tbaa !31
  %24 = load i32, ptr %8, align 4, !tbaa !31
  %25 = icmp eq i32 %24, 0
  br i1 %25, label %26, label %29

26:                                               ; preds = %22
  %27 = call noundef i32 @_ZNK6icu_778Calendar11internalGetE19UCalendarDateFieldsi(ptr noundef nonnull align 8 dereferenceable(192) %10, i32 noundef 1, i32 noundef 1)
  %28 = sub nsw i32 1, %27
  store i32 %28, ptr %6, align 4, !tbaa !31
  br label %37

29:                                               ; preds = %22
  %30 = load i32, ptr %8, align 4, !tbaa !31
  %31 = icmp eq i32 %30, 1
  br i1 %31, label %32, label %34

32:                                               ; preds = %29
  %33 = call noundef i32 @_ZNK6icu_778Calendar11internalGetE19UCalendarDateFieldsi(ptr noundef nonnull align 8 dereferenceable(192) %10, i32 noundef 1, i32 noundef 1970)
  store i32 %33, ptr %6, align 4, !tbaa !31
  br label %36

34:                                               ; preds = %29
  %35 = load ptr, ptr %5, align 8, !tbaa !8
  store i32 1, ptr %35, align 4, !tbaa !35
  store i32 0, ptr %3, align 4
  store i32 1, ptr %9, align 4
  br label %38

36:                                               ; preds = %32
  br label %37

37:                                               ; preds = %36, %26
  store i32 0, ptr %9, align 4
  br label %38

38:                                               ; preds = %37, %34
  call void @llvm.lifetime.end.p0(i64 4, ptr %8) #10
  %39 = load i32, ptr %9, align 4
  switch i32 %39, label %58 [
    i32 0, label %40
  ]

40:                                               ; preds = %38
  br label %56

41:                                               ; preds = %16
  %42 = call noundef i32 @_ZNK6icu_778Calendar11internalGetE19UCalendarDateFields(ptr noundef nonnull align 8 dereferenceable(192) %10, i32 noundef 17)
  %43 = call noundef i32 @_ZNK6icu_778Calendar11internalGetE19UCalendarDateFields(ptr noundef nonnull align 8 dereferenceable(192) %10, i32 noundef 3)
  %44 = load ptr, ptr %5, align 8, !tbaa !8
  %45 = load ptr, ptr %10, align 8, !tbaa !9
  %46 = getelementptr inbounds ptr, ptr %45, i64 44
  %47 = load ptr, ptr %46, align 8
  %48 = call noundef i32 %47(ptr noundef nonnull align 8 dereferenceable(222) %10, i32 noundef %42, i32 noundef %43, ptr noundef nonnull align 4 dereferenceable(4) %44)
  store i32 %48, ptr %6, align 4, !tbaa !31
  %49 = load ptr, ptr %5, align 8, !tbaa !8
  %50 = load i32, ptr %49, align 4, !tbaa !35
  %51 = call noundef signext i8 @_ZL9U_FAILURE10UErrorCode(i32 noundef %50)
  %52 = icmp ne i8 %51, 0
  br i1 %52, label %53, label %54

53:                                               ; preds = %41
  store i32 0, ptr %3, align 4
  store i32 1, ptr %9, align 4
  br label %58

54:                                               ; preds = %41
  br label %56

55:                                               ; preds = %16
  store i32 1970, ptr %6, align 4, !tbaa !31
  br label %56

56:                                               ; preds = %55, %54, %40, %20
  %57 = load i32, ptr %6, align 4, !tbaa !31
  store i32 %57, ptr %3, align 4
  store i32 1, ptr %9, align 4
  br label %58

58:                                               ; preds = %56, %53, %38
  call void @llvm.lifetime.end.p0(i64 4, ptr %7) #10
  call void @llvm.lifetime.end.p0(i64 4, ptr %6) #10
  br label %59

59:                                               ; preds = %58, %15
  %60 = load i32, ptr %3, align 4
  ret i32 %60
}