; Function Attrs: mustprogress uwtable
define noundef i32 @_ZN6icu_7717GregorianCalendar21handleGetExtendedYearER10UErrorCode(ptr noundef nonnull align 8 dereferenceable(222) %0, ptr noundef nonnull align 4 dereferenceable(4) %1) unnamed_addr #1 align 2 {
  %3 = load i32, ptr %1, align 4, !tbaa !25
  %4 = icmp slt i32 %3, 1
  br i1 %4, label %5, label %_ZNK6icu_778Calendar11internalGetE19UCalendarDateFieldsi.exit18.thread

5:                                                ; preds = %2
  %6 = tail call noundef i32 @_ZNK6icu_778Calendar10newerFieldE19UCalendarDateFieldsS1_(ptr noundef nonnull align 8 dereferenceable(192) %0, i32 noundef 19, i32 noundef 1)
  %7 = tail call noundef i32 @_ZNK6icu_778Calendar10newerFieldE19UCalendarDateFieldsS1_(ptr noundef nonnull align 8 dereferenceable(192) %0, i32 noundef %6, i32 noundef 17)
  switch i32 %7, label %_ZNK6icu_778Calendar11internalGetE19UCalendarDateFieldsi.exit18.thread [
    i32 19, label %8
    i32 1, label %15
    i32 17, label %34
  ]

8:                                                ; preds = %5
  %9 = getelementptr inbounds nuw i8, ptr %0, i64 123
  %10 = load i8, ptr %9, align 1, !tbaa !33
  %11 = icmp sgt i8 %10, 0
  br i1 %11, label %12, label %_ZNK6icu_778Calendar11internalGetE19UCalendarDateFieldsi.exit18.thread

12:                                               ; preds = %8
  %13 = getelementptr inbounds nuw i8, ptr %0, i64 84
  %14 = load i32, ptr %13, align 4, !tbaa !32
  br label %_ZNK6icu_778Calendar11internalGetE19UCalendarDateFieldsi.exit18.thread

15:                                               ; preds = %5
  %16 = getelementptr inbounds nuw i8, ptr %0, i64 104
  %17 = load i8, ptr %16, align 8, !tbaa !33
  %18 = icmp sgt i8 %17, 0
  br i1 %18, label %_ZNK6icu_778Calendar11internalGetE19UCalendarDateFieldsi.exit16, label %_ZNK6icu_778Calendar11internalGetE19UCalendarDateFieldsi.exit16.thread

_ZNK6icu_778Calendar11internalGetE19UCalendarDateFieldsi.exit16: ; preds = %15
  %19 = getelementptr inbounds nuw i8, ptr %0, i64 8
  %20 = load i32, ptr %19, align 8, !tbaa !32
  switch i32 %20, label %_ZNK6icu_778Calendar11internalGetE19UCalendarDateFieldsi.exit18 [
    i32 0, label %_ZNK6icu_778Calendar11internalGetE19UCalendarDateFieldsi.exit17
    i32 1, label %_ZNK6icu_778Calendar11internalGetE19UCalendarDateFieldsi.exit16.thread
  ]

_ZNK6icu_778Calendar11internalGetE19UCalendarDateFieldsi.exit17: ; preds = %_ZNK6icu_778Calendar11internalGetE19UCalendarDateFieldsi.exit16
  %21 = getelementptr inbounds nuw i8, ptr %0, i64 105
  %22 = load i8, ptr %21, align 1, !tbaa !33
  %23 = icmp sgt i8 %22, 0
  %24 = getelementptr inbounds nuw i8, ptr %0, i64 12
  %25 = load i32, ptr %24, align 4
  %26 = sub nsw i32 1, %25
  %27 = select i1 %23, i32 %26, i32 0
  br label %_ZNK6icu_778Calendar11internalGetE19UCalendarDateFieldsi.exit18.thread

_ZNK6icu_778Calendar11internalGetE19UCalendarDateFieldsi.exit16.thread: ; preds = %15, %_ZNK6icu_778Calendar11internalGetE19UCalendarDateFieldsi.exit16
  %28 = getelementptr inbounds nuw i8, ptr %0, i64 105
  %29 = load i8, ptr %28, align 1, !tbaa !33
  %30 = icmp sgt i8 %29, 0
  br i1 %30, label %31, label %_ZNK6icu_778Calendar11internalGetE19UCalendarDateFieldsi.exit18.thread

31:                                               ; preds = %_ZNK6icu_778Calendar11internalGetE19UCalendarDateFieldsi.exit16.thread
  %32 = getelementptr inbounds nuw i8, ptr %0, i64 12
  %33 = load i32, ptr %32, align 4, !tbaa !32
  br label %_ZNK6icu_778Calendar11internalGetE19UCalendarDateFieldsi.exit18.thread

_ZNK6icu_778Calendar11internalGetE19UCalendarDateFieldsi.exit18: ; preds = %_ZNK6icu_778Calendar11internalGetE19UCalendarDateFieldsi.exit16
  store i32 1, ptr %1, align 4, !tbaa !25
  br label %_ZNK6icu_778Calendar11internalGetE19UCalendarDateFieldsi.exit18.thread

34:                                               ; preds = %5
  %35 = getelementptr inbounds nuw i8, ptr %0, i64 76
  %36 = load i32, ptr %35, align 4, !tbaa !32
  %37 = getelementptr inbounds nuw i8, ptr %0, i64 20
  %38 = load i32, ptr %37, align 4, !tbaa !32
  %39 = load ptr, ptr %0, align 8, !tbaa !3
  %40 = getelementptr inbounds nuw i8, ptr %39, i64 352
  %41 = load ptr, ptr %40, align 8
  %42 = tail call noundef i32 %41(ptr noundef nonnull align 8 dereferenceable(222) %0, i32 noundef %36, i32 noundef %38, ptr noundef nonnull align 4 dereferenceable(4) %1)
  %43 = load i32, ptr %1, align 4, !tbaa !25
  %.inv = icmp sgt i32 %43, 0
  %spec.select = select i1 %.inv, i32 0, i32 %42
  br label %_ZNK6icu_778Calendar11internalGetE19UCalendarDateFieldsi.exit18.thread

_ZNK6icu_778Calendar11internalGetE19UCalendarDateFieldsi.exit18.thread: ; preds = %34, %31, %_ZNK6icu_778Calendar11internalGetE19UCalendarDateFieldsi.exit16.thread, %_ZNK6icu_778Calendar11internalGetE19UCalendarDateFieldsi.exit17, %5, %8, %12, %_ZNK6icu_778Calendar11internalGetE19UCalendarDateFieldsi.exit18, %2
  %.010 = phi i32 [ 0, %2 ], [ 0, %_ZNK6icu_778Calendar11internalGetE19UCalendarDateFieldsi.exit18 ], [ 1970, %5 ], [ %14, %12 ], [ 1970, %8 ], [ 1970, %_ZNK6icu_778Calendar11internalGetE19UCalendarDateFieldsi.exit16.thread ], [ %33, %31 ], [ %27, %_ZNK6icu_778Calendar11internalGetE19UCalendarDateFieldsi.exit17 ], [ %spec.select, %34 ]
  ret i32 %.010
}